; Function Attrs: nounwind uwtable
define void @Scl_LibertyReadLoadUnit(ptr noundef readonly captures(none) %0, ptr noundef captures(none) %1) local_unnamed_addr #4 {
Scl_LibertyItem.exit:
  %2 = getelementptr i8, ptr %0, i64 40
  %.val = load ptr, ptr %2, align 8
  %3 = getelementptr inbounds nuw i8, ptr %.val, i64 36
  %4 = load i32, ptr %3, align 4
  %5 = icmp slt i32 %4, 0
  %.not4951 = icmp eq ptr %.val, null
  %.not49 = or i1 %5, %.not4951
  br i1 %.not49, label %.critedge, label %.lr.ph

.lr.ph:                                           ; preds = %Scl_LibertyItem.exit
  %6 = getelementptr i8, ptr %0, i64 8
  %.val25 = load ptr, ptr %6, align 8
  br label %7

7:                                                ; preds = %.lr.ph, %Scl_LibertyCompare.exit.thread
  %.pn.in = phi i32 [ %4, %.lr.ph ], [ %93, %Scl_LibertyCompare.exit.thread ]
  %.pn = zext i32 %.pn.in to i64
  %.050 = getelementptr inbounds nuw %struct.Scl_Item_t_, ptr %.val, i64 %.pn
  %8 = getelementptr inbounds nuw i8, ptr %.050, i64 8
  %9 = load i64, ptr %8, align 4
  %.sroa.0.0.extract.trunc.i = trunc i64 %9 to i32
  %.sroa.4.0.extract.shift.i = lshr i64 %9, 32
  %.sroa.4.0.extract.trunc.i = trunc nuw i64 %.sroa.4.0.extract.shift.i to i32
  %sext.i = shl i64 %9, 32
  %10 = ashr exact i64 %sext.i, 32
  %11 = getelementptr inbounds i8, ptr %.val25, i64 %10
  %12 = sub nsw i32 %.sroa.4.0.extract.trunc.i, %.sroa.0.0.extract.trunc.i
  %13 = sext i32 %12 to i64
  %14 = tail call i32 @strncmp(ptr noundef readonly %11, ptr noundef nonnull @.str.58, i64 noundef %13) #30
  %.not.i = icmp eq i32 %14, 0
  %.not42 = icmp eq i32 %12, 20
  %or.cond = and i1 %.not.i, %.not42
  br i1 %or.cond, label %15, label %Scl_LibertyCompare.exit.thread

15:                                               ; preds = %7
  %16 = getelementptr inbounds nuw i8, ptr %.050, i64 16
  %17 = load i64, ptr %16, align 4
  %18 = tail call ptr @Scl_LibertyReadString(ptr noundef nonnull %0, i64 %17)
  %19 = tail call ptr @strtok(ptr noundef %18, ptr noundef nonnull @.str.59) #29
  %20 = tail call double @atof(ptr noundef %19) #30
  %21 = fptrunc double %20 to float
  %22 = tail call ptr @strtok(ptr noundef null, ptr noundef nonnull @.str.59) #29
  tail call fastcc void @Vec_StrPutF_(ptr noundef %1, float noundef %21)
  %.not22 = icmp eq ptr %22, null
  br i1 %.not22, label %.critedge, label %sub_0

sub_0:                                            ; preds = %15
  %23 = load i8, ptr %22, align 1
  switch i8 %23, label %.critedge [
    i8 112, label %sub_1
    i8 102, label %sub_145
  ]

sub_1:                                            ; preds = %sub_0
  %24 = getelementptr inbounds nuw i8, ptr %22, i64 1
  %25 = load i8, ptr %24, align 1
  %.not53 = icmp eq i8 %25, 102
  br i1 %.not53, label %.tail, label %.critedge

.tail:                                            ; preds = %sub_1
  %26 = getelementptr inbounds nuw i8, ptr %22, i64 2
  %27 = load i8, ptr %26, align 1
  %28 = icmp eq i8 %27, 0
  br i1 %28, label %29, label %.critedge

29:                                               ; preds = %.tail
  %30 = getelementptr inbounds nuw i8, ptr %1, i64 4
  %31 = load i32, ptr %30, align 4
  %32 = load i32, ptr %1, align 8
  %33 = icmp eq i32 %31, %32
  br i1 %33, label %34, label %.Vec_StrGrow.exit10_crit_edge.i5.i.i

.Vec_StrGrow.exit10_crit_edge.i5.i.i:             ; preds = %29
  %.phi.trans.insert.i6.i.i = getelementptr inbounds nuw i8, ptr %1, i64 8
  %.pre.i7.i.i = load ptr, ptr %.phi.trans.insert.i6.i.i, align 8
  br label %Vec_StrPutI_.exit

34:                                               ; preds = %29
  %35 = icmp slt i32 %31, 16
  br i1 %35, label %36, label %44

36:                                               ; preds = %34
  %37 = getelementptr inbounds nuw i8, ptr %1, i64 8
  %38 = load ptr, ptr %37, align 8
  %.not9.i.i9.i.i = icmp eq ptr %38, null
  br i1 %.not9.i.i9.i.i, label %41, label %39

39:                                               ; preds = %36
  %40 = tail call dereferenceable_or_null(16) ptr @realloc(ptr noundef nonnull %38, i64 noundef 16) #27
  br label %Vec_StrGrow.exit.i10.i.i

41:                                               ; preds = %36
  %42 = tail call noalias dereferenceable_or_null(16) ptr @malloc(i64 noundef 16) #28
  br label %Vec_StrGrow.exit.i10.i.i

Vec_StrGrow.exit.i10.i.i:                         ; preds = %41, %39
  %43 = phi ptr [ %40, %39 ], [ %42, %41 ]
  store ptr %43, ptr %37, align 8
  store i32 16, ptr %1, align 8
  br label %Vec_StrPutI_.exit

44:                                               ; preds = %34
  %45 = shl nuw nsw i32 %31, 1
  %46 = getelementptr inbounds nuw i8, ptr %1, i64 8
  %47 = load ptr, ptr %46, align 8
  %.not9.i9.i8.i.i = icmp eq ptr %47, null
  %48 = zext nneg i32 %45 to i64
  br i1 %.not9.i9.i8.i.i, label %51, label %49

49:                                               ; preds = %44
  %50 = tail call ptr @realloc(ptr noundef nonnull %47, i64 noundef %48) #27
  br label %53

51:                                               ; preds = %44
  %52 = tail call noalias ptr @malloc(i64 noundef %48) #28
  br label %53

53:                                               ; preds = %51, %49
  %54 = phi ptr [ %50, %49 ], [ %52, %51 ]
  store ptr %54, ptr %46, align 8
  store i32 %45, ptr %1, align 8
  br label %Vec_StrPutI_.exit

Vec_StrPutI_.exit:                                ; preds = %.Vec_StrGrow.exit10_crit_edge.i5.i.i, %Vec_StrGrow.exit.i10.i.i, %53
  %55 = phi ptr [ %.pre.i7.i.i, %.Vec_StrGrow.exit10_crit_edge.i5.i.i ], [ %54, %53 ], [ %43, %Vec_StrGrow.exit.i10.i.i ]
  %56 = load i32, ptr %30, align 4
  %57 = add nsw i32 %56, 1
  store i32 %57, ptr %30, align 4
  br label %123

sub_145:                                          ; preds = %sub_0
  %58 = getelementptr inbounds nuw i8, ptr %22, i64 1
  %59 = load i8, ptr %58, align 1
  %.not55 = icmp eq i8 %59, 102
  br i1 %.not55, label %.tail43, label %.critedge

.tail43:                                          ; preds = %sub_145
  %60 = getelementptr inbounds nuw i8, ptr %22, i64 2
  %61 = load i8, ptr %60, align 1
  %62 = icmp eq i8 %61, 0
  br i1 %62, label %63, label %.critedge

63:                                               ; preds = %.tail43
  %64 = getelementptr inbounds nuw i8, ptr %1, i64 4
  %65 = load i32, ptr %64, align 4
  %66 = load i32, ptr %1, align 8
  %67 = icmp eq i32 %65, %66
  br i1 %67, label %68, label %.Vec_StrGrow.exit10_crit_edge.i5.i.i26

.Vec_StrGrow.exit10_crit_edge.i5.i.i26:           ; preds = %63
  %.phi.trans.insert.i6.i.i27 = getelementptr inbounds nuw i8, ptr %1, i64 8
  %.pre.i7.i.i28 = load ptr, ptr %.phi.trans.insert.i6.i.i27, align 8
  br label %Vec_StrPutI_.exit32

68:                                               ; preds = %63
  %69 = icmp slt i32 %65, 16
  br i1 %69, label %70, label %78

70:                                               ; preds = %68
  %71 = getelementptr inbounds nuw i8, ptr %1, i64 8
  %72 = load ptr, ptr %71, align 8
  %.not9.i.i9.i.i30 = icmp eq ptr %72, null
  br i1 %.not9.i.i9.i.i30, label %75, label %73

73:                                               ; preds = %70
  %74 = tail call dereferenceable_or_null(16) ptr @realloc(ptr noundef nonnull %72, i64 noundef 16) #27
  br label %Vec_StrGrow.exit.i10.i.i31

75:                                               ; preds = %70
  %76 = tail call noalias dereferenceable_or_null(16) ptr @malloc(i64 noundef 16) #28
  br label %Vec_StrGrow.exit.i10.i.i31

Vec_StrGrow.exit.i10.i.i31:                       ; preds = %75, %73
  %77 = phi ptr [ %74, %73 ], [ %76, %75 ]
  store ptr %77, ptr %71, align 8
  store i32 16, ptr %1, align 8
  br label %Vec_StrPutI_.exit32

78:                                               ; preds = %68
  %79 = shl nuw nsw i32 %65, 1
  %80 = getelementptr inbounds nuw i8, ptr %1, i64 8
  %81 = load ptr, ptr %80, align 8
  %.not9.i9.i8.i.i29 = icmp eq ptr %81, null
  %82 = zext nneg i32 %79 to i64
  br i1 %.not9.i9.i8.i.i29, label %85, label %83

83:                                               ; preds = %78
  %84 = tail call ptr @realloc(ptr noundef nonnull %81, i64 noundef %82) #27
  br label %87

85:                                               ; preds = %78
  %86 = tail call noalias ptr @malloc(i64 noundef %82) #28
  br label %87

87:                                               ; preds = %85, %83
  %88 = phi ptr [ %84, %83 ], [ %86, %85 ]
  store ptr %88, ptr %80, align 8
  store i32 %79, ptr %1, align 8
  br label %Vec_StrPutI_.exit32

Vec_StrPutI_.exit32:                              ; preds = %.Vec_StrGrow.exit10_crit_edge.i5.i.i26, %Vec_StrGrow.exit.i10.i.i31, %87
  %89 = phi ptr [ %.pre.i7.i.i28, %.Vec_StrGrow.exit10_crit_edge.i5.i.i26 ], [ %88, %87 ], [ %77, %Vec_StrGrow.exit.i10.i.i31 ]
  %90 = load i32, ptr %64, align 4
  %91 = add nsw i32 %90, 1
  store i32 %91, ptr %64, align 4
  br label %123

Scl_LibertyCompare.exit.thread:                   ; preds = %7
  %92 = getelementptr inbounds nuw i8, ptr %.050, i64 32
  %93 = load i32, ptr %92, align 4
  %94 = icmp slt i32 %93, 0
  br i1 %94, label %.critedge, label %7, !llvm.loop !42

.critedge:                                        ; preds = %Scl_LibertyCompare.exit.thread, %sub_0, %.tail, %sub_1, %sub_145, %Scl_LibertyItem.exit, %15, %.tail43
  %puts = tail call i32 @puts(ptr nonnull dereferenceable(1) @str.4)
  tail call fastcc void @Vec_StrPutF_(ptr noundef %1, float noundef 1.000000e+00)
  %95 = getelementptr inbounds nuw i8, ptr %1, i64 4
  %96 = load i32, ptr %95, align 4
  %97 = load i32, ptr %1, align 8
  %98 = icmp eq i32 %96, %97
  br i1 %98, label %99, label %.Vec_StrGrow.exit10_crit_edge.i5.i.i34

.Vec_StrGrow.exit10_crit_edge.i5.i.i34:           ; preds = %.critedge
  %.phi.trans.insert.i6.i.i35 = getelementptr inbounds nuw i8, ptr %1, i64 8
  %.pre.i7.i.i36 = load ptr, ptr %.phi.trans.insert.i6.i.i35, align 8
  br label %Vec_StrPutI_.exit40

99:                                               ; preds = %.critedge
  %100 = icmp slt i32 %96, 16
  br i1 %100, label %101, label %109

101:                                              ; preds = %99
  %102 = getelementptr inbounds nuw i8, ptr %1, i64 8
  %103 = load ptr, ptr %102, align 8
  %.not9.i.i9.i.i38 = icmp eq ptr %103, null
  br i1 %.not9.i.i9.i.i38, label %106, label %104

104:                                              ; preds = %101
  %105 = tail call dereferenceable_or_null(16) ptr @realloc(ptr noundef nonnull %103, i64 noundef 16) #27
  br label %Vec_StrGrow.exit.i10.i.i39

106:                                              ; preds = %101
  %107 = tail call noalias dereferenceable_or_null(16) ptr @malloc(i64 noundef 16) #28
  br label %Vec_StrGrow.exit.i10.i.i39

Vec_StrGrow.exit.i10.i.i39:                       ; preds = %106, %104
  %108 = phi ptr [ %105, %104 ], [ %107, %106 ]
  store ptr %108, ptr %102, align 8
  store i32 16, ptr %1, align 8
  br label %Vec_StrPutI_.exit40

109:                                              ; preds = %99
  %110 = shl nuw nsw i32 %96, 1
  %111 = getelementptr inbounds nuw i8, ptr %1, i64 8
  %112 = load ptr, ptr %111, align 8
  %.not9.i9.i8.i.i37 = icmp eq ptr %112, null
  %113 = zext nneg i32 %110 to i64
  br i1 %.not9.i9.i8.i.i37, label %116, label %114

114:                                              ; preds = %109
  %115 = tail call ptr @realloc(ptr noundef nonnull %112, i64 noundef %113) #27
  br label %118

116:                                              ; preds = %109
  %117 = tail call noalias ptr @malloc(i64 noundef %113) #28
  br label %118

118:                                              ; preds = %116, %114
  %119 = phi ptr [ %115, %114 ], [ %117, %116 ]
  store ptr %119, ptr %111, align 8
  store i32 %110, ptr %1, align 8
  br label %Vec_StrPutI_.exit40

Vec_StrPutI_.exit40:                              ; preds = %.Vec_StrGrow.exit10_crit_edge.i5.i.i34, %Vec_StrGrow.exit.i10.i.i39, %118
  %120 = phi ptr [ %.pre.i7.i.i36, %.Vec_StrGrow.exit10_crit_edge.i5.i.i34 ], [ %119, %118 ], [ %108, %Vec_StrGrow.exit.i10.i.i39 ]
  %121 = load i32, ptr %95, align 4
  %122 = add nsw i32 %121, 1
  store i32 %122, ptr %95, align 4
  br label %123

123:                                              ; preds = %Vec_StrPutI_.exit, %Vec_StrPutI_.exit32, %Vec_StrPutI_.exit40
  %.sink66 = phi i32 [ %56, %Vec_StrPutI_.exit ], [ %90, %Vec_StrPutI_.exit32 ], [ %121, %Vec_StrPutI_.exit40 ]
  %.sink64 = phi ptr [ %55, %Vec_StrPutI_.exit ], [ %89, %Vec_StrPutI_.exit32 ], [ %120, %Vec_StrPutI_.exit40 ]
  %.sink = phi i8 [ 12, %Vec_StrPutI_.exit ], [ 15, %Vec_StrPutI_.exit32 ], [ 12, %Vec_StrPutI_.exit40 ]
  %124 = sext i32 %.sink66 to i64
  %125 = getelementptr inbounds i8, ptr %.sink64, i64 %124
  store i8 %.sink, ptr %125, align 1
  ret void
}